; Function Attrs: nounwind uwtable
define hidden noundef zeroext i1 @SDL_GetSensorData_REAL(ptr noundef %0, ptr noundef writeonly captures(none) %1, i32 noundef %2) local_unnamed_addr #1 {
  %4 = tail call i32 @SDL_AddAtomicInt_REAL(ptr noundef nonnull @SDL_sensor_lock_pending, i32 noundef 1) #9
  %5 = load ptr, ptr @SDL_sensor_lock, align 8
  tail call void @SDL_LockMutex_REAL(ptr noundef %5) #9
  %6 = tail call i32 @SDL_AddAtomicInt_REAL(ptr noundef nonnull @SDL_sensor_lock_pending, i32 noundef -1) #9
  %7 = load i32, ptr @SDL_sensors_locked, align 4
  %8 = add nsw i32 %7, 1
  store i32 %8, ptr @SDL_sensors_locked, align 4
  %9 = tail call zeroext i1 @SDL_ObjectValid(ptr noundef %0, i32 noundef 7) #9
  br i1 %9, label %22, label %10

10:                                               ; preds = %3
  %11 = tail call zeroext i1 (ptr, ...) @SDL_SetError_REAL(ptr noundef nonnull @.str, ptr noundef nonnull @.str.1) #9
  %12 = load i32, ptr @SDL_sensors_locked, align 4
  %13 = add nsw i32 %12, -1
  store i32 %13, ptr @SDL_sensors_locked, align 4
  %.b4.i = load i1, ptr @SDL_sensors_initialized, align 1
  %14 = icmp ne i32 %13, 0
  %or.cond.i = select i1 %.b4.i, i1 true, i1 %14
  br i1 %or.cond.i, label %.critedge.i, label %15

15:                                               ; preds = %10
  %16 = tail call i32 @SDL_GetAtomicInt_REAL(ptr noundef nonnull @SDL_sensor_lock_pending) #9
  %17 = icmp eq i32 %16, 0
  br i1 %17, label %18, label %.critedge.i

18:                                               ; preds = %15
  %19 = load ptr, ptr @SDL_sensor_lock, align 8
  tail call void @SDL_LockMutex_REAL(ptr noundef %19) #9
  %20 = load ptr, ptr @SDL_sensor_lock, align 8
  tail call void @SDL_UnlockMutex_REAL(ptr noundef %20) #9
  store ptr null, ptr @SDL_sensor_lock, align 8
  tail call void @SDL_UnlockMutex_REAL(ptr noundef %19) #9
  tail call void @SDL_DestroyMutex_REAL(ptr noundef %19) #9
  br label %SDL_UnlockSensors.exit

.critedge.i:                                      ; preds = %15, %10
  %21 = load ptr, ptr @SDL_sensor_lock, align 8
  tail call void @SDL_UnlockMutex_REAL(ptr noundef %21) #9
  br label %SDL_UnlockSensors.exit

22:                                               ; preds = %3
  %23 = tail call i32 @llvm.umin.i32(i32 %2, i32 16)
  %24 = getelementptr inbounds nuw i8, ptr %0, i64 24
  %25 = shl nuw nsw i32 %23, 2
  %26 = zext nneg i32 %25 to i64
  tail call void @llvm.memcpy.p0.p0.i64(ptr align 4 %1, ptr nonnull align 8 %24, i64 %26, i1 false)
  %27 = load i32, ptr @SDL_sensors_locked, align 4
  %28 = add nsw i32 %27, -1
  store i32 %28, ptr @SDL_sensors_locked, align 4
  %.b4.i6 = load i1, ptr @SDL_sensors_initialized, align 1
  %29 = icmp ne i32 %28, 0
  %or.cond.i7 = select i1 %.b4.i6, i1 true, i1 %29
  br i1 %or.cond.i7, label %.critedge.i8, label %30

30:                                               ; preds = %22
  %31 = tail call i32 @SDL_GetAtomicInt_REAL(ptr noundef nonnull @SDL_sensor_lock_pending) #9
  %32 = icmp eq i32 %31, 0
  br i1 %32, label %33, label %.critedge.i8

33:                                               ; preds = %30
  %34 = load ptr, ptr @SDL_sensor_lock, align 8
  tail call void @SDL_LockMutex_REAL(ptr noundef %34) #9
  %35 = load ptr, ptr @SDL_sensor_lock, align 8
  tail call void @SDL_UnlockMutex_REAL(ptr noundef %35) #9
  store ptr null, ptr @SDL_sensor_lock, align 8
  tail call void @SDL_UnlockMutex_REAL(ptr noundef %34) #9
  tail call void @SDL_DestroyMutex_REAL(ptr noundef %34) #9
  br label %SDL_UnlockSensors.exit

.critedge.i8:                                     ; preds = %30, %22
  %36 = load ptr, ptr @SDL_sensor_lock, align 8
  tail call void @SDL_UnlockMutex_REAL(ptr noundef %36) #9
  br label %SDL_UnlockSensors.exit

SDL_UnlockSensors.exit:                           ; preds = %.critedge.i8, %33, %.critedge.i, %18
  ret i1 %9
}